target datalayout = "e-m:e-p270:32:32-p271:32:32-p272:64:64-i64:64-i128:128-f80:128-n8:16:32:64-S128"
target triple = "x86_64-pc-linux-gnu"

@.str.5 = private unnamed_addr constant [32 x i8] c"set option TCP_KEEPINTVL failed\00", align 1
@.str.12 = private unnamed_addr constant [40 x i8] c"java/lang/UnsupportedOperationException\00", align 1
@.str.13 = private unnamed_addr constant [26 x i8] c"unsupported socket option\00", align 1
@.str.14 = private unnamed_addr constant [25 x i8] c"java/net/SocketException\00", align 1

; Function Attrs: nounwind uwtable
define internal void @handleError(ptr noundef %0, i32 noundef %1, ptr noundef %2) #0 {
  %4 = alloca ptr, align 8
  %5 = alloca i32, align 4
  %6 = alloca ptr, align 8
  store ptr %0, ptr %4, align 8
  store i32 %1, ptr %5, align 4
  store ptr %2, ptr %6, align 8
  %7 = load i32, ptr %5, align 4
  %8 = icmp slt i32 %7, 0
  br i1 %8, label %9, label %19

9:                                                ; preds = %3
  %10 = call ptr @__errno_location() #5
  %11 = load i32, ptr %10, align 4
  %12 = icmp eq i32 %11, 92
  br i1 %12, label %13, label %15

13:                                               ; preds = %9
  %14 = load ptr, ptr %4, align 8
  call void @JNU_ThrowByName(ptr noundef %14, ptr noundef @.str.12, ptr noundef @.str.13)
  br label %18

15:                                               ; preds = %9
  %16 = load ptr, ptr %4, align 8
  %17 = load ptr, ptr %6, align 8
  call void @JNU_ThrowByNameWithLastError(ptr noundef %16, ptr noundef @.str.14, ptr noundef %17)
  br label %18

18:                                               ; preds = %15, %13
  br label %19

19:                                               ; preds = %18, %3
  ret void
}

; Function Attrs: nounwind uwtable
define void @Java_jdk_net_LinuxSocketOptions_setTcpKeepAliveIntvl0(ptr noundef %0, ptr noundef %1, i32 noundef %2, i32 noundef %3) #0 {
  %5 = alloca ptr, align 8
  %6 = alloca ptr, align 8
  %7 = alloca i32, align 4
  %8 = alloca i32, align 4
  %9 = alloca i32, align 4
  store ptr %0, ptr %5, align 8
  store ptr %1, ptr %6, align 8
  store i32 %2, ptr %7, align 4
  store i32 %3, ptr %8, align 4
  %10 = load i32, ptr %7, align 4
  %11 = call i32 @setsockopt(i32 noundef %10, i32 noundef 6, i32 noundef 5, ptr noundef %8, i32 noundef 4) #4
  store i32 %11, ptr %9, align 4
  %12 = load ptr, ptr %5, align 8
  %13 = load i32, ptr %9, align 4
  call void @handleError(ptr noundef %12, i32 noundef %13, ptr noundef @.str.5)
  ret void
}